target datalayout = "e-m:e-p270:32:32-p271:32:32-p272:64:64-i64:64-i128:128-f80:128-n8:16:32:64-S128"
target triple = "x86_64-unknown-linux-gnu"

%"class.folly::Optional" = type { %"struct.folly::Optional<proxygen::HTTP3::ErrorCode>::StorageTriviallyDestructible" }
%"struct.folly::Optional<proxygen::HTTP3::ErrorCode>::StorageTriviallyDestructible" = type <{ %union.anon, i8, [7 x i8] }>
%union.anon = type { i64 }
%"class.proxygen::hq::HQControlCodec" = type { %"class.proxygen::hq::HQUnidirectionalCodec.base", [15 x i8], %"class.proxygen::hq::HQFramedCodec", i8, i8, i8, i8, i8, i64, i64, i64, ptr, [8 x i8] }
%"class.proxygen::hq::HQUnidirectionalCodec.base" = type <{ ptr, i64, i8 }>
%"class.proxygen::hq::HQFramedCodec" = type { %"class.proxygen::HTTPCodec", i64, i8, ptr, %"struct.proxygen::hq::FrameHeader", i8, i8, i64, i8, [7 x i8], %"class.folly::Optional", i64, %"class.folly::Function" }
%"class.proxygen::HTTPCodec" = type { ptr }
%"struct.proxygen::hq::FrameHeader" = type { i64, i64 }
%"class.folly::Function" = type { %"union.folly::detail::function::Data", ptr, ptr }
%"union.folly::detail::function::Data" = type { ptr, [40 x i8] }

; Function Attrs: mustprogress nounwind uwtable
define noundef i64 @_ZN8proxygen2hq14HQControlCodec13finalGoawayIdEv(ptr noundef nonnull align 16 dereferenceable(232) %this) #5 align 2 {
entry:
  %retval = alloca i64, align 8
  %this.addr = alloca ptr, align 8
  store ptr %this, ptr %this.addr, align 8
  %this1 = load ptr, ptr %this.addr, align 8
  %add.ptr = getelementptr inbounds i8, ptr %this1, i64 32
  %transportDirection_ = getelementptr inbounds %"class.proxygen::hq::HQFramedCodec", ptr %add.ptr, i32 0, i32 2
  %0 = load i8, ptr %transportDirection_, align 16
  %cmp = icmp eq i8 %0, 0
  br i1 %cmp, label %if.then, label %if.else

if.then:                                          ; preds = %entry
  %minUnseenStreamID_ = getelementptr inbounds %"class.proxygen::hq::HQControlCodec", ptr %this1, i32 0, i32 9
  %1 = load i64, ptr %minUnseenStreamID_, align 16
  store i64 %1, ptr %retval, align 8
  br label %return

if.else:                                          ; preds = %entry
  %minUnseenPushID_ = getelementptr inbounds %"class.proxygen::hq::HQControlCodec", ptr %this1, i32 0, i32 10
  %2 = load i64, ptr %minUnseenPushID_, align 8
  store i64 %2, ptr %retval, align 8
  br label %return

return:                                           ; preds = %if.else, %if.then
  %3 = load i64, ptr %retval, align 8
  ret i64 %3
}