; Function Attrs: mustprogress nofree norecurse nosync nounwind willreturn memory(argmem: read) uwtable
define noundef i64 @_ZN8proxygen2hq14HQControlCodec13finalGoawayIdEv(ptr nocapture noundef nonnull readonly align 16 dereferenceable(232) %this) local_unnamed_addr #10 align 2 {
entry:
  %transportDirection_ = getelementptr inbounds i8, ptr %this, i64 48
  %0 = load i8, ptr %transportDirection_, align 16
  %cmp = icmp eq i8 %0, 0
  %retval.0.in.v = select i1 %cmp, i64 208, i64 216
  %retval.0.in = getelementptr inbounds i8, ptr %this, i64 %retval.0.in.v
  %retval.0 = load i64, ptr %retval.0.in, align 8
  ret i64 %retval.0
}